; ModuleID = '33/1234.c'
source_filename = "33/1234.c"
target datalayout = "e-m:e-p270:32:32-p271:32:32-p272:64:64-i64:64-f80:128-n8:16:32:64-S128"
target triple = "x86_64-pc-linux-gnu"

@.str = private unnamed_addr constant [3 x i8] c"%d\00", align 1
@.str.1 = private unnamed_addr constant [3 x i8] c"%s\00", align 1
@.str.2 = private unnamed_addr constant [4 x i8] c"%s\0A\00", align 1

; Function Attrs: noinline nounwind uwtable
define dso_local i32 @main() #0 {
  %1 = alloca i32, align 4
  %2 = alloca i32, align 4
  %3 = alloca i32, align 4
  %4 = alloca i32, align 4
  %5 = alloca i32, align 4
  %6 = alloca i32, align 4
  %7 = alloca [3000 x i32], align 16
  %8 = alloca [3000 x [256 x i8]], align 16
  %9 = alloca [3000 x [256 x i8]], align 16
  store i32 0, i32* %1, align 4
  %10 = call i32 (i8*, ...) @__isoc99_scanf(i8* getelementptr inbounds ([3 x i8], [3 x i8]* @.str, i64 0, i64 0), i32* %2)
  store i32 0, i32* %3, align 4
  br label %11

11:                                               ; preds = %30, %0
  %12 = load i32, i32* %3, align 4
  %13 = load i32, i32* %2, align 4
  %14 = icmp slt i32 %12, %13
  br i1 %14, label %15, label %33

15:                                               ; preds = %11
  %16 = load i32, i32* %3, align 4
  %17 = sext i32 %16 to i64
  %18 = getelementptr inbounds [3000 x [256 x i8]], [3000 x [256 x i8]]* %8, i64 0, i64 %17
  %19 = getelementptr inbounds [256 x i8], [256 x i8]* %18, i64 0, i64 0
  %20 = call i32 (i8*, ...) @__isoc99_scanf(i8* getelementptr inbounds ([3 x i8], [3 x i8]* @.str.1, i64 0, i64 0), i8* %19)
  %21 = load i32, i32* %3, align 4
  %22 = sext i32 %21 to i64
  %23 = getelementptr inbounds [3000 x [256 x i8]], [3000 x [256 x i8]]* %8, i64 0, i64 %22
  %24 = getelementptr inbounds [256 x i8], [256 x i8]* %23, i64 0, i64 0
  %25 = call i64 @strlen(i8* %24) #3
  %26 = trunc i64 %25 to i32
  %27 = load i32, i32* %3, align 4
  %28 = sext i32 %27 to i64
  %29 = getelementptr inbounds [3000 x i32], [3000 x i32]* %7, i64 0, i64 %28
  store i32 %26, i32* %29, align 4
  br label %30

30:                                               ; preds = %15
  %31 = load i32, i32* %3, align 4
  %32 = add nsw i32 %31, 1
  store i32 %32, i32* %3, align 4
  br label %11

33:                                               ; preds = %11
  store i32 0, i32* %4, align 4
  br label %34

34:                                               ; preds = %120, %33
  %35 = load i32, i32* %4, align 4
  %36 = load i32, i32* %2, align 4
  %37 = icmp slt i32 %35, %36
  br i1 %37, label %38, label %123

38:                                               ; preds = %34
  store i32 0, i32* %5, align 4
  br label %39

39:                                               ; preds = %116, %38
  %40 = load i32, i32* %5, align 4
  %41 = load i32, i32* %4, align 4
  %42 = sext i32 %41 to i64
  %43 = getelementptr inbounds [3000 x i32], [3000 x i32]* %7, i64 0, i64 %42
  %44 = load i32, i32* %43, align 4
  %45 = icmp slt i32 %40, %44
  br i1 %45, label %46, label %119

46:                                               ; preds = %39
  %47 = load i32, i32* %4, align 4
  %48 = sext i32 %47 to i64
  %49 = getelementptr inbounds [3000 x [256 x i8]], [3000 x [256 x i8]]* %8, i64 0, i64 %48
  %50 = load i32, i32* %5, align 4
  %51 = sext i32 %50 to i64
  %52 = getelementptr inbounds [256 x i8], [256 x i8]* %49, i64 0, i64 %51
  %53 = load i8, i8* %52, align 1
  %54 = sext i8 %53 to i32
  %55 = icmp eq i32 %54, 65
  br i1 %55, label %56, label %63

56:                                               ; preds = %46
  %57 = load i32, i32* %4, align 4
  %58 = sext i32 %57 to i64
  %59 = getelementptr inbounds [3000 x [256 x i8]], [3000 x [256 x i8]]* %9, i64 0, i64 %58
  %60 = load i32, i32* %5, align 4
  %61 = sext i32 %60 to i64
  %62 = getelementptr inbounds [256 x i8], [256 x i8]* %59, i64 0, i64 %61
  store i8 84, i8* %62, align 1
  br label %106

63:                                               ; preds = %46
  %64 = load i32, i32* %4, align 4
  %65 = sext i32 %64 to i64
  %66 = getelementptr inbounds [3000 x [256 x i8]], [3000 x [256 x i8]]* %8, i64 0, i64 %65
  %67 = load i32, i32* %5, align 4
  %68 = sext i32 %67 to i64
  %69 = getelementptr inbounds [256 x i8], [256 x i8]* %66, i64 0, i64 %68
  %70 = load i8, i8* %69, align 1
  %71 = sext i8 %70 to i32
  %72 = icmp eq i32 %71, 84
  br i1 %72, label %73, label %80

73:                                               ; preds = %63
  %74 = load i32, i32* %4, align 4
  %75 = sext i32 %74 to i64
  %76 = getelementptr inbounds [3000 x [256 x i8]], [3000 x [256 x i8]]* %9, i64 0, i64 %75
  %77 = load i32, i32* %5, align 4
  %78 = sext i32 %77 to i64
  %79 = getelementptr inbounds [256 x i8], [256 x i8]* %76, i64 0, i64 %78
  store i8 65, i8* %79, align 1
  br label %105

80:                                               ; preds = %63
  %81 = load i32, i32* %4, align 4
  %82 = sext i32 %81 to i64
  %83 = getelementptr inbounds [3000 x [256 x i8]], [3000 x [256 x i8]]* %8, i64 0, i64 %82
  %84 = load i32, i32* %5, align 4
  %85 = sext i32 %84 to i64
  %86 = getelementptr inbounds [256 x i8], [256 x i8]* %83, i64 0, i64 %85
  %87 = load i8, i8* %86, align 1
  %88 = sext i8 %87 to i32
  %89 = icmp eq i32 %88, 67
  br i1 %89, label %90, label %97

90:                                               ; preds = %80
  %91 = load i32, i32* %4, align 4
  %92 = sext i32 %91 to i64
  %93 = getelementptr inbounds [3000 x [256 x i8]], [3000 x [256 x i8]]* %9, i64 0, i64 %92
  %94 = load i32, i32* %5, align 4
  %95 = sext i32 %94 to i64
  %96 = getelementptr inbounds [256 x i8], [256 x i8]* %93, i64 0, i64 %95
  store i8 71, i8* %96, align 1
  br label %104

97:                                               ; preds = %80
  %98 = load i32, i32* %4, align 4
  %99 = sext i32 %98 to i64
  %100 = getelementptr inbounds [3000 x [256 x i8]], [3000 x [256 x i8]]* %9, i64 0, i64 %99
  %101 = load i32, i32* %5, align 4
  %102 = sext i32 %101 to i64
  %103 = getelementptr inbounds [256 x i8], [256 x i8]* %100, i64 0, i64 %102
  store i8 67, i8* %103, align 1
  br label %104

104:                                              ; preds = %97, %90
  br label %105

105:                                              ; preds = %104, %73
  br label %106

106:                                              ; preds = %105, %56
  %107 = load i32, i32* %4, align 4
  %108 = sext i32 %107 to i64
  %109 = getelementptr inbounds [3000 x [256 x i8]], [3000 x [256 x i8]]* %9, i64 0, i64 %108
  %110 = load i32, i32* %4, align 4
  %111 = sext i32 %110 to i64
  %112 = getelementptr inbounds [3000 x i32], [3000 x i32]* %7, i64 0, i64 %111
  %113 = load i32, i32* %112, align 4
  %114 = sext i32 %113 to i64
  %115 = getelementptr inbounds [256 x i8], [256 x i8]* %109, i64 0, i64 %114
  store i8 0, i8* %115, align 1
  br label %116

116:                                              ; preds = %106
  %117 = load i32, i32* %5, align 4
  %118 = add nsw i32 %117, 1
  store i32 %118, i32* %5, align 4
  br label %39

119:                                              ; preds = %39
  br label %120

120:                                              ; preds = %119
  %121 = load i32, i32* %4, align 4
  %122 = add nsw i32 %121, 1
  store i32 %122, i32* %4, align 4
  br label %34

123:                                              ; preds = %34
  store i32 0, i32* %6, align 4
  br label %124

124:                                              ; preds = %134, %123
  %125 = load i32, i32* %6, align 4
  %126 = load i32, i32* %2, align 4
  %127 = icmp slt i32 %125, %126
  br i1 %127, label %128, label %137

128:                                              ; preds = %124
  %129 = load i32, i32* %6, align 4
  %130 = sext i32 %129 to i64
  %131 = getelementptr inbounds [3000 x [256 x i8]], [3000 x [256 x i8]]* %9, i64 0, i64 %130
  %132 = getelementptr inbounds [256 x i8], [256 x i8]* %131, i64 0, i64 0
  %133 = call i32 (i8*, ...) @printf(i8* getelementptr inbounds ([4 x i8], [4 x i8]* @.str.2, i64 0, i64 0), i8* %132)
  br label %134

134:                                              ; preds = %128
  %135 = load i32, i32* %6, align 4
  %136 = add nsw i32 %135, 1
  store i32 %136, i32* %6, align 4
  br label %124

137:                                              ; preds = %124
  ret i32 0
}

declare dso_local i32 @__isoc99_scanf(i8*, ...) #1

; Function Attrs: nounwind readonly
declare dso_local i64 @strlen(i8*) #2

declare dso_local i32 @printf(i8*, ...) #1


!llvm.module.flags = !{!0}
!llvm.ident = !{!1}

!0 = !{i32 1, !"wchar_size", i32 4}
!1 = !{!"clang version 10.0.0-4ubuntu1 "}
